target datalayout = "e-m:e-p270:32:32-p271:32:32-p272:64:64-i64:64-i128:128-f80:128-n8:16:32:64-S128"
target triple = "x86_64-pc-linux-gnu"

%"class.std::__cxx11::basic_string" = type { %"struct.std::__cxx11::basic_string<char>::_Alloc_hider", i64, %union.anon }
%"struct.std::__cxx11::basic_string<char>::_Alloc_hider" = type { ptr }
%union.anon = type { i64, [8 x i8] }
%class.cmStateDirectory = type { %"class.cmLinkedTree<cmStateDetail::BuildsystemDirectoryStateType>::iterator", %class.cmStateSnapshot }
%"class.cmLinkedTree<cmStateDetail::BuildsystemDirectoryStateType>::iterator" = type { ptr, i64 }
%class.cmStateSnapshot = type { ptr, %"class.cmLinkedTree<cmStateDetail::SnapshotDataType>::iterator" }
%"class.cmLinkedTree<cmStateDetail::SnapshotDataType>::iterator" = type { ptr, i64 }
%"struct.cmStateDetail::BuildsystemDirectoryStateType" = type { %"class.cmLinkedTree<cmStateDetail::SnapshotDataType>::iterator", %"class.std::__cxx11::basic_string", %"class.std::__cxx11::basic_string", %"class.std::vector", %"class.std::vector", %"class.std::vector", %"class.std::vector", %"class.std::vector", %"class.std::vector.3", %"class.std::vector.3", %"class.std::__cxx11::basic_string", %class.cmPropertyMap, %"class.std::vector.13" }
%"class.std::vector" = type { %"struct.std::_Vector_base" }
%"struct.std::_Vector_base" = type { %"struct.std::_Vector_base<BT<std::__cxx11::basic_string<char>>, std::allocator<BT<std::__cxx11::basic_string<char>>>>::_Vector_impl" }
%"struct.std::_Vector_base<BT<std::__cxx11::basic_string<char>>, std::allocator<BT<std::__cxx11::basic_string<char>>>>::_Vector_impl" = type { %"struct.std::_Vector_base<BT<std::__cxx11::basic_string<char>>, std::allocator<BT<std::__cxx11::basic_string<char>>>>::_Vector_impl_data" }
%"struct.std::_Vector_base<BT<std::__cxx11::basic_string<char>>, std::allocator<BT<std::__cxx11::basic_string<char>>>>::_Vector_impl_data" = type { ptr, ptr, ptr }
%"class.std::vector.3" = type { %"struct.std::_Vector_base.4" }
%"struct.std::_Vector_base.4" = type { %"struct.std::_Vector_base<std::__cxx11::basic_string<char>, std::allocator<std::__cxx11::basic_string<char>>>::_Vector_impl" }
%"struct.std::_Vector_base<std::__cxx11::basic_string<char>, std::allocator<std::__cxx11::basic_string<char>>>::_Vector_impl" = type { %"struct.std::_Vector_base<std::__cxx11::basic_string<char>, std::allocator<std::__cxx11::basic_string<char>>>::_Vector_impl_data" }
%"struct.std::_Vector_base<std::__cxx11::basic_string<char>, std::allocator<std::__cxx11::basic_string<char>>>::_Vector_impl_data" = type { ptr, ptr, ptr }
%class.cmPropertyMap = type { %"class.std::unordered_map" }
%"class.std::unordered_map" = type { %"class.std::_Hashtable" }
%"class.std::_Hashtable" = type { ptr, i64, %"struct.std::__detail::_Hash_node_base", i64, %"struct.std::__detail::_Prime_rehash_policy", ptr }
%"struct.std::__detail::_Hash_node_base" = type { ptr }
%"struct.std::__detail::_Prime_rehash_policy" = type { float, i64 }
%"class.std::vector.13" = type { %"struct.std::_Vector_base.14" }
%"struct.std::_Vector_base.14" = type { %"struct.std::_Vector_base<cmStateSnapshot, std::allocator<cmStateSnapshot>>::_Vector_impl" }
%"struct.std::_Vector_base<cmStateSnapshot, std::allocator<cmStateSnapshot>>::_Vector_impl" = type { %"struct.std::_Vector_base<cmStateSnapshot, std::allocator<cmStateSnapshot>>::_Vector_impl_data" }
%"struct.std::_Vector_base<cmStateSnapshot, std::allocator<cmStateSnapshot>>::_Vector_impl_data" = type { ptr, ptr, ptr }
%class.cmLinkedTree = type { %"class.std::vector.59", %"class.std::vector.64" }
%"class.std::vector.59" = type { %"struct.std::_Vector_base.60" }
%"struct.std::_Vector_base.60" = type { %"struct.std::_Vector_base<cmStateDetail::BuildsystemDirectoryStateType, std::allocator<cmStateDetail::BuildsystemDirectoryStateType>>::_Vector_impl" }
%"struct.std::_Vector_base<cmStateDetail::BuildsystemDirectoryStateType, std::allocator<cmStateDetail::BuildsystemDirectoryStateType>>::_Vector_impl" = type { %"struct.std::_Vector_base<cmStateDetail::BuildsystemDirectoryStateType, std::allocator<cmStateDetail::BuildsystemDirectoryStateType>>::_Vector_impl_data" }
%"struct.std::_Vector_base<cmStateDetail::BuildsystemDirectoryStateType, std::allocator<cmStateDetail::BuildsystemDirectoryStateType>>::_Vector_impl_data" = type { ptr, ptr, ptr }
%"class.std::vector.64" = type { %"struct.std::_Vector_base.65" }
%"struct.std::_Vector_base.65" = type { %"struct.std::_Vector_base<unsigned long, std::allocator<unsigned long>>::_Vector_impl" }
%"struct.std::_Vector_base<unsigned long, std::allocator<unsigned long>>::_Vector_impl" = type { %"struct.std::_Vector_base<unsigned long, std::allocator<unsigned long>>::_Vector_impl_data" }
%"struct.std::_Vector_base<unsigned long, std::allocator<unsigned long>>::_Vector_impl_data" = type { ptr, ptr, ptr }

; Function Attrs: mustprogress nounwind uwtable
define linkonce_odr dso_local noundef nonnull align 8 dereferenceable(360) ptr @_ZNSt6vectorIN13cmStateDetail29BuildsystemDirectoryStateTypeESaIS1_EEixEm(ptr noundef nonnull align 8 dereferenceable(24) %0, i64 noundef %1) #6 comdat align 2 {
  %3 = alloca ptr, align 8
  %4 = alloca i64, align 8
  store ptr %0, ptr %3, align 8, !tbaa !197
  store i64 %1, ptr %4, align 8, !tbaa !17
  %5 = load ptr, ptr %3, align 8
  %6 = getelementptr inbounds nuw %"struct.std::_Vector_base.60", ptr %5, i32 0, i32 0
  %7 = getelementptr inbounds nuw %"struct.std::_Vector_base<cmStateDetail::BuildsystemDirectoryStateType, std::allocator<cmStateDetail::BuildsystemDirectoryStateType>>::_Vector_impl_data", ptr %6, i32 0, i32 0
  %8 = load ptr, ptr %7, align 8, !tbaa !199
  %9 = load i64, ptr %4, align 8, !tbaa !17
  %10 = getelementptr inbounds nuw %"struct.cmStateDetail::BuildsystemDirectoryStateType", ptr %8, i64 %9
  ret ptr %10
}

; Function Attrs: mustprogress nounwind uwtable
define linkonce_odr dso_local noundef ptr @_ZN12cmLinkedTreeIN13cmStateDetail29BuildsystemDirectoryStateTypeEE10GetPointerEm(ptr noundef nonnull align 8 dereferenceable(48) %0, i64 noundef %1) #6 comdat align 2 {
  %3 = alloca ptr, align 8
  %4 = alloca i64, align 8
  store ptr %0, ptr %3, align 8, !tbaa !35
  store i64 %1, ptr %4, align 8, !tbaa !17
  %5 = load ptr, ptr %3, align 8
  %6 = getelementptr inbounds nuw %class.cmLinkedTree, ptr %5, i32 0, i32 0
  %7 = load i64, ptr %4, align 8, !tbaa !17
  %8 = call noundef nonnull align 8 dereferenceable(360) ptr @_ZNSt6vectorIN13cmStateDetail29BuildsystemDirectoryStateTypeESaIS1_EEixEm(ptr noundef nonnull align 8 dereferenceable(24) %6, i64 noundef %7) #3
  ret ptr %8
}

; Function Attrs: mustprogress uwtable
define linkonce_odr dso_local noundef ptr @_ZNK12cmLinkedTreeIN13cmStateDetail29BuildsystemDirectoryStateTypeEE8iteratorptEv(ptr noundef nonnull align 8 dereferenceable(16) %0) #5 comdat align 2 {
  %2 = alloca ptr, align 8
  store ptr %0, ptr %2, align 8, !tbaa !26
  %3 = load ptr, ptr %2, align 8
  %4 = getelementptr inbounds nuw %"class.cmLinkedTree<cmStateDetail::BuildsystemDirectoryStateType>::iterator", ptr %3, i32 0, i32 0
  %5 = load ptr, ptr %4, align 8, !tbaa !28
  %6 = getelementptr inbounds nuw %"class.cmLinkedTree<cmStateDetail::BuildsystemDirectoryStateType>::iterator", ptr %3, i32 0, i32 1
  %7 = load i64, ptr %6, align 8, !tbaa !31
  %8 = sub i64 %7, 1
  %9 = call noundef ptr @_ZN12cmLinkedTreeIN13cmStateDetail29BuildsystemDirectoryStateTypeEE10GetPointerEm(ptr noundef nonnull align 8 dereferenceable(48) %5, i64 noundef %8)
  ret ptr %9
}

; Function Attrs: mustprogress uwtable
define dso_local void @_ZNK16cmStateDirectory15GetPropertyKeysB5cxx11Ev(ptr dead_on_unwind noalias writable sret(%"class.std::vector.3") align 8 %0, ptr noundef nonnull align 8 dereferenceable(40) %1) #5 align 2 {
  %3 = alloca ptr, align 8
  %4 = alloca ptr, align 8
  store ptr %0, ptr %3, align 8
  store ptr %1, ptr %4, align 8, !tbaa !24
  %5 = load ptr, ptr %4, align 8
  %6 = getelementptr inbounds nuw %class.cmStateDirectory, ptr %5, i32 0, i32 0
  %7 = call noundef ptr @_ZNK12cmLinkedTreeIN13cmStateDetail29BuildsystemDirectoryStateTypeEE8iteratorptEv(ptr noundef nonnull align 8 dereferenceable(16) %6)
  %8 = getelementptr inbounds nuw %"struct.cmStateDetail::BuildsystemDirectoryStateType", ptr %7, i32 0, i32 11
  call void @_ZNK13cmPropertyMap7GetKeysB5cxx11Ev(ptr dead_on_unwind writable sret(%"class.std::vector.3") align 8 %0, ptr noundef nonnull align 8 dereferenceable(56) %8)
  ret void
}