; Function Attrs: mustprogress uwtable
define dso_local void @_ZNK16cmStateDirectory15GetPropertyKeysB5cxx11Ev(ptr dead_on_unwind noalias writable sret(%"class.std::vector.3") align 8 %0, ptr noundef nonnull readonly align 8 captures(none) dereferenceable(40) %1) local_unnamed_addr #6 align 2 {
  %3 = load ptr, ptr %1, align 8, !tbaa !4
  %4 = getelementptr inbounds nuw i8, ptr %1, i64 8
  %5 = load i64, ptr %4, align 8, !tbaa !11
  %6 = load ptr, ptr %3, align 8, !tbaa !12
  %7 = getelementptr %"struct.cmStateDetail::BuildsystemDirectoryStateType", ptr %6, i64 %5
  %8 = getelementptr i8, ptr %7, i64 -80
  tail call void @_ZNK13cmPropertyMap7GetKeysB5cxx11Ev(ptr dead_on_unwind writable sret(%"class.std::vector.3") align 8 %0, ptr noundef nonnull align 8 dereferenceable(56) %8)
  ret void
}